target datalayout = "e-m:e-p270:32:32-p271:32:32-p272:64:64-i64:64-i128:128-f80:128-n8:16:32:64-S128"
target triple = "x86_64-pc-linux-gnu"

%struct.newhope_poly_st = type { [1024 x i16] }

; Function Attrs: nounwind uwtable
define hidden void @newhope_poly_add(ptr noundef %0, ptr noundef %1, ptr noundef %2) #0 {
  %4 = alloca ptr, align 8
  %5 = alloca ptr, align 8
  %6 = alloca ptr, align 8
  %7 = alloca i64, align 8
  store ptr %0, ptr %4, align 8, !tbaa !6
  store ptr %1, ptr %5, align 8, !tbaa !6
  store ptr %2, ptr %6, align 8, !tbaa !6
  call void @llvm.lifetime.start.p0(i64 8, ptr %7) #5
  store i64 0, ptr %7, align 8, !tbaa !21
  br label %8

8:                                                ; preds = %31, %3
  %9 = load i64, ptr %7, align 8, !tbaa !21
  %10 = icmp ult i64 %9, 1024
  br i1 %10, label %11, label %34

11:                                               ; preds = %8
  %12 = load ptr, ptr %5, align 8, !tbaa !6
  %13 = getelementptr inbounds nuw %struct.newhope_poly_st, ptr %12, i32 0, i32 0
  %14 = load i64, ptr %7, align 8, !tbaa !21
  %15 = getelementptr inbounds nuw [1024 x i16], ptr %13, i64 0, i64 %14
  %16 = load i16, ptr %15, align 2, !tbaa !16
  %17 = zext i16 %16 to i32
  %18 = load ptr, ptr %6, align 8, !tbaa !6
  %19 = getelementptr inbounds nuw %struct.newhope_poly_st, ptr %18, i32 0, i32 0
  %20 = load i64, ptr %7, align 8, !tbaa !21
  %21 = getelementptr inbounds nuw [1024 x i16], ptr %19, i64 0, i64 %20
  %22 = load i16, ptr %21, align 2, !tbaa !16
  %23 = zext i16 %22 to i32
  %24 = add nsw i32 %17, %23
  %25 = trunc i32 %24 to i16
  %26 = call zeroext i16 @newhope_barrett_reduce(i16 noundef zeroext %25)
  %27 = load ptr, ptr %4, align 8, !tbaa !6
  %28 = getelementptr inbounds nuw %struct.newhope_poly_st, ptr %27, i32 0, i32 0
  %29 = load i64, ptr %7, align 8, !tbaa !21
  %30 = getelementptr inbounds nuw [1024 x i16], ptr %28, i64 0, i64 %29
  store i16 %26, ptr %30, align 2, !tbaa !16
  br label %31

31:                                               ; preds = %11
  %32 = load i64, ptr %7, align 8, !tbaa !21
  %33 = add i64 %32, 1
  store i64 %33, ptr %7, align 8, !tbaa !21
  br label %8, !llvm.loop !27

34:                                               ; preds = %8
  call void @llvm.lifetime.end.p0(i64 8, ptr %7) #5
  ret void
}