; Function Attrs: nounwind uwtable
define hidden void @newhope_poly_add(ptr noundef writeonly captures(none) %0, ptr noundef readonly captures(none) %1, ptr noundef readonly captures(none) %2) local_unnamed_addr #2 {
  br label %4

4:                                                ; preds = %3, %4
  %.07 = phi i64 [ 0, %3 ], [ %12, %4 ]
  %5 = getelementptr inbounds nuw [1024 x i16], ptr %1, i64 0, i64 %.07
  %6 = load i16, ptr %5, align 2, !tbaa !9
  %7 = getelementptr inbounds nuw [1024 x i16], ptr %2, i64 0, i64 %.07
  %8 = load i16, ptr %7, align 2, !tbaa !9
  %9 = add i16 %8, %6
  %10 = tail call zeroext i16 @newhope_barrett_reduce(i16 noundef zeroext %9) #6
  %11 = getelementptr inbounds nuw [1024 x i16], ptr %0, i64 0, i64 %.07
  store i16 %10, ptr %11, align 2, !tbaa !9
  %12 = add nuw nsw i64 %.07, 1
  %exitcond.not = icmp eq i64 %12, 1024
  br i1 %exitcond.not, label %13, label %4, !llvm.loop !20

13:                                               ; preds = %4
  ret void
}